ARM GAS  /tmp/cc0Mhh5V.s 			page 1


   1              		.cpu cortex-m4
   2              		.arch armv7e-m
   3              		.fpu fpv4-sp-d16
   4              		.eabi_attribute 27, 1
   5              		.eabi_attribute 28, 1
   6              		.eabi_attribute 20, 1
   7              		.eabi_attribute 21, 1
   8              		.eabi_attribute 23, 3
   9              		.eabi_attribute 24, 1
  10              		.eabi_attribute 25, 1
  11              		.eabi_attribute 26, 1
  12              		.eabi_attribute 30, 1
  13              		.eabi_attribute 34, 1
  14              		.eabi_attribute 18, 4
  15              		.file	"syscalls.c"
  16              		.text
  17              	.Ltext0:
  18              		.cfi_sections	.debug_frame
  19              		.section	.text.initialise_monitor_handles,"ax",%progbits
  20              		.align	1
  21              		.global	initialise_monitor_handles
  22              		.syntax unified
  23              		.thumb
  24              		.thumb_func
  26              	initialise_monitor_handles:
  27              	.LFB25:
  28              		.file 1 "Core/Src/syscalls.c"
   1:Core/Src/syscalls.c **** /**
   2:Core/Src/syscalls.c ****  ******************************************************************************
   3:Core/Src/syscalls.c ****  * @file      syscalls.c
   4:Core/Src/syscalls.c ****  * @author    Auto-generated by STM32CubeIDE
   5:Core/Src/syscalls.c ****  * @brief     STM32CubeIDE Minimal System calls file
   6:Core/Src/syscalls.c ****  *
   7:Core/Src/syscalls.c ****  *            For more information about which c-functions
   8:Core/Src/syscalls.c ****  *            need which of these lowlevel functions
   9:Core/Src/syscalls.c ****  *            please consult the Newlib libc-manual
  10:Core/Src/syscalls.c ****  ******************************************************************************
  11:Core/Src/syscalls.c ****  * @attention
  12:Core/Src/syscalls.c ****  *
  13:Core/Src/syscalls.c ****  * Copyright (c) 2020-2023 STMicroelectronics.
  14:Core/Src/syscalls.c ****  * All rights reserved.
  15:Core/Src/syscalls.c ****  *
  16:Core/Src/syscalls.c ****  * This software is licensed under terms that can be found in the LICENSE file
  17:Core/Src/syscalls.c ****  * in the root directory of this software component.
  18:Core/Src/syscalls.c ****  * If no LICENSE file comes with this software, it is provided AS-IS.
  19:Core/Src/syscalls.c ****  *
  20:Core/Src/syscalls.c ****  ******************************************************************************
  21:Core/Src/syscalls.c ****  */
  22:Core/Src/syscalls.c **** 
  23:Core/Src/syscalls.c **** /* Includes */
  24:Core/Src/syscalls.c **** #include <sys/stat.h>
  25:Core/Src/syscalls.c **** #include <stdlib.h>
  26:Core/Src/syscalls.c **** #include <errno.h>
  27:Core/Src/syscalls.c **** #include <stdio.h>
  28:Core/Src/syscalls.c **** #include <signal.h>
  29:Core/Src/syscalls.c **** #include <time.h>
  30:Core/Src/syscalls.c **** #include <sys/time.h>
ARM GAS  /tmp/cc0Mhh5V.s 			page 2


  31:Core/Src/syscalls.c **** #include <sys/times.h>
  32:Core/Src/syscalls.c **** 
  33:Core/Src/syscalls.c **** 
  34:Core/Src/syscalls.c **** /* Variables */
  35:Core/Src/syscalls.c **** extern int __io_putchar(int ch) __attribute__((weak));
  36:Core/Src/syscalls.c **** extern int __io_getchar(void) __attribute__((weak));
  37:Core/Src/syscalls.c **** 
  38:Core/Src/syscalls.c **** 
  39:Core/Src/syscalls.c **** char *__env[1] = { 0 };
  40:Core/Src/syscalls.c **** char **environ = __env;
  41:Core/Src/syscalls.c **** 
  42:Core/Src/syscalls.c **** extern char _estack;
  43:Core/Src/syscalls.c **** extern char _Min_Stack_Size;
  44:Core/Src/syscalls.c **** 
  45:Core/Src/syscalls.c **** 
  46:Core/Src/syscalls.c **** /* Functions */
  47:Core/Src/syscalls.c **** void initialise_monitor_handles()
  48:Core/Src/syscalls.c **** {
  29              		.loc 1 48 1 view -0
  30              		.cfi_startproc
  31              		@ args = 0, pretend = 0, frame = 0
  32              		@ frame_needed = 0, uses_anonymous_args = 0
  33              		@ link register save eliminated.
  49:Core/Src/syscalls.c **** }
  34              		.loc 1 49 1 view .LVU1
  35 0000 7047     		bx	lr
  36              		.cfi_endproc
  37              	.LFE25:
  39              		.section	.text._getpid,"ax",%progbits
  40              		.align	1
  41              		.global	_getpid
  42              		.syntax unified
  43              		.thumb
  44              		.thumb_func
  46              	_getpid:
  47              	.LFB26:
  50:Core/Src/syscalls.c **** 
  51:Core/Src/syscalls.c **** int _getpid(void)
  52:Core/Src/syscalls.c **** {
  48              		.loc 1 52 1 view -0
  49              		.cfi_startproc
  50              		@ args = 0, pretend = 0, frame = 0
  51              		@ frame_needed = 0, uses_anonymous_args = 0
  52              		@ link register save eliminated.
  53:Core/Src/syscalls.c ****   return 1;
  53              		.loc 1 53 3 view .LVU3
  54:Core/Src/syscalls.c **** }
  54              		.loc 1 54 1 is_stmt 0 view .LVU4
  55 0000 0120     		movs	r0, #1
  56 0002 7047     		bx	lr
  57              		.cfi_endproc
  58              	.LFE26:
  60              		.section	.text._kill,"ax",%progbits
  61              		.align	1
  62              		.global	_kill
  63              		.syntax unified
  64              		.thumb
ARM GAS  /tmp/cc0Mhh5V.s 			page 3


  65              		.thumb_func
  67              	_kill:
  68              	.LVL0:
  69              	.LFB27:
  55:Core/Src/syscalls.c **** 
  56:Core/Src/syscalls.c **** int _kill(int pid, int sig)
  57:Core/Src/syscalls.c **** {
  70              		.loc 1 57 1 is_stmt 1 view -0
  71              		.cfi_startproc
  72              		@ args = 0, pretend = 0, frame = 0
  73              		@ frame_needed = 0, uses_anonymous_args = 0
  74              		.loc 1 57 1 is_stmt 0 view .LVU6
  75 0000 08B5     		push	{r3, lr}
  76              	.LCFI0:
  77              		.cfi_def_cfa_offset 8
  78              		.cfi_offset 3, -8
  79              		.cfi_offset 14, -4
  58:Core/Src/syscalls.c ****   (void)pid;
  80              		.loc 1 58 3 is_stmt 1 view .LVU7
  59:Core/Src/syscalls.c ****   (void)sig;
  81              		.loc 1 59 3 view .LVU8
  60:Core/Src/syscalls.c ****   errno = EINVAL;
  82              		.loc 1 60 3 view .LVU9
  83 0002 FFF7FEFF 		bl	__errno
  84              	.LVL1:
  85              		.loc 1 60 9 is_stmt 0 view .LVU10
  86 0006 1623     		movs	r3, #22
  87 0008 0360     		str	r3, [r0]
  61:Core/Src/syscalls.c ****   return -1;
  88              		.loc 1 61 3 is_stmt 1 view .LVU11
  62:Core/Src/syscalls.c **** }
  89              		.loc 1 62 1 is_stmt 0 view .LVU12
  90 000a 4FF0FF30 		mov	r0, #-1
  91 000e 08BD     		pop	{r3, pc}
  92              		.cfi_endproc
  93              	.LFE27:
  95              		.section	.text._exit,"ax",%progbits
  96              		.align	1
  97              		.global	_exit
  98              		.syntax unified
  99              		.thumb
 100              		.thumb_func
 102              	_exit:
 103              	.LVL2:
 104              	.LFB28:
  63:Core/Src/syscalls.c **** 
  64:Core/Src/syscalls.c **** void _exit (int status)
  65:Core/Src/syscalls.c **** {
 105              		.loc 1 65 1 is_stmt 1 view -0
 106              		.cfi_startproc
 107              		@ Volatile: function does not return.
 108              		@ args = 0, pretend = 0, frame = 0
 109              		@ frame_needed = 0, uses_anonymous_args = 0
 110              		.loc 1 65 1 is_stmt 0 view .LVU14
 111 0000 08B5     		push	{r3, lr}
 112              	.LCFI1:
 113              		.cfi_def_cfa_offset 8
ARM GAS  /tmp/cc0Mhh5V.s 			page 4


 114              		.cfi_offset 3, -8
 115              		.cfi_offset 14, -4
  66:Core/Src/syscalls.c ****   _kill(status, -1);
 116              		.loc 1 66 3 is_stmt 1 view .LVU15
 117 0002 4FF0FF31 		mov	r1, #-1
 118 0006 FFF7FEFF 		bl	_kill
 119              	.LVL3:
 120              	.L6:
  67:Core/Src/syscalls.c ****   while (1) {}    /* Make sure we hang here */
 121              		.loc 1 67 3 discriminator 1 view .LVU16
 122              		.loc 1 67 14 discriminator 1 view .LVU17
 123              		.loc 1 67 9 discriminator 1 view .LVU18
 124 000a FEE7     		b	.L6
 125              		.cfi_endproc
 126              	.LFE28:
 128              		.section	.text._read,"ax",%progbits
 129              		.align	1
 130              		.weak	_read
 131              		.syntax unified
 132              		.thumb
 133              		.thumb_func
 135              	_read:
 136              	.LVL4:
 137              	.LFB29:
  68:Core/Src/syscalls.c **** }
  69:Core/Src/syscalls.c **** 
  70:Core/Src/syscalls.c **** __attribute__((weak)) int _read(int file, char *ptr, int len)
  71:Core/Src/syscalls.c **** {
 138              		.loc 1 71 1 view -0
 139              		.cfi_startproc
 140              		@ args = 0, pretend = 0, frame = 0
 141              		@ frame_needed = 0, uses_anonymous_args = 0
 142              		.loc 1 71 1 is_stmt 0 view .LVU20
 143 0000 70B5     		push	{r4, r5, r6, lr}
 144              	.LCFI2:
 145              		.cfi_def_cfa_offset 16
 146              		.cfi_offset 4, -16
 147              		.cfi_offset 5, -12
 148              		.cfi_offset 6, -8
 149              		.cfi_offset 14, -4
 150 0002 0C46     		mov	r4, r1
 151 0004 1646     		mov	r6, r2
  72:Core/Src/syscalls.c ****   (void)file;
 152              		.loc 1 72 3 is_stmt 1 view .LVU21
  73:Core/Src/syscalls.c ****   int DataIdx;
 153              		.loc 1 73 3 view .LVU22
  74:Core/Src/syscalls.c **** 
  75:Core/Src/syscalls.c ****   for (DataIdx = 0; DataIdx < len; DataIdx++)
 154              		.loc 1 75 3 view .LVU23
 155              	.LVL5:
 156              		.loc 1 75 16 is_stmt 0 view .LVU24
 157 0006 0025     		movs	r5, #0
 158              		.loc 1 75 3 view .LVU25
 159 0008 06E0     		b	.L9
 160              	.LVL6:
 161              	.L10:
  76:Core/Src/syscalls.c ****   {
ARM GAS  /tmp/cc0Mhh5V.s 			page 5


  77:Core/Src/syscalls.c ****     *ptr++ = __io_getchar();
 162              		.loc 1 77 5 is_stmt 1 discriminator 3 view .LVU26
 163              		.loc 1 77 14 is_stmt 0 discriminator 3 view .LVU27
 164 000a FFF7FEFF 		bl	__io_getchar
 165              	.LVL7:
 166              		.loc 1 77 9 discriminator 3 view .LVU28
 167 000e 2146     		mov	r1, r4
 168              	.LVL8:
 169              		.loc 1 77 12 discriminator 3 view .LVU29
 170 0010 01F8010B 		strb	r0, [r1], #1
 171              	.LVL9:
  75:Core/Src/syscalls.c ****   {
 172              		.loc 1 75 36 is_stmt 1 discriminator 3 view .LVU30
  75:Core/Src/syscalls.c ****   {
 173              		.loc 1 75 43 is_stmt 0 discriminator 3 view .LVU31
 174 0014 0135     		adds	r5, r5, #1
 175              	.LVL10:
 176              		.loc 1 77 9 discriminator 3 view .LVU32
 177 0016 0C46     		mov	r4, r1
 178              	.LVL11:
 179              	.L9:
  75:Core/Src/syscalls.c ****   {
 180              		.loc 1 75 21 is_stmt 1 discriminator 1 view .LVU33
  75:Core/Src/syscalls.c ****   {
 181              		.loc 1 75 3 is_stmt 0 discriminator 1 view .LVU34
 182 0018 B542     		cmp	r5, r6
 183 001a F6DB     		blt	.L10
  78:Core/Src/syscalls.c ****   }
  79:Core/Src/syscalls.c **** 
  80:Core/Src/syscalls.c ****   return len;
 184              		.loc 1 80 3 is_stmt 1 view .LVU35
  81:Core/Src/syscalls.c **** }
 185              		.loc 1 81 1 is_stmt 0 view .LVU36
 186 001c 3046     		mov	r0, r6
 187 001e 70BD     		pop	{r4, r5, r6, pc}
 188              		.loc 1 81 1 view .LVU37
 189              		.cfi_endproc
 190              	.LFE29:
 192              		.section	.text._write,"ax",%progbits
 193              		.align	1
 194              		.weak	_write
 195              		.syntax unified
 196              		.thumb
 197              		.thumb_func
 199              	_write:
 200              	.LVL12:
 201              	.LFB30:
  82:Core/Src/syscalls.c **** 
  83:Core/Src/syscalls.c **** __attribute__((weak)) int _write(int file, char *ptr, int len)
  84:Core/Src/syscalls.c **** {
 202              		.loc 1 84 1 is_stmt 1 view -0
 203              		.cfi_startproc
 204              		@ args = 0, pretend = 0, frame = 0
 205              		@ frame_needed = 0, uses_anonymous_args = 0
 206              		.loc 1 84 1 is_stmt 0 view .LVU39
 207 0000 70B5     		push	{r4, r5, r6, lr}
 208              	.LCFI3:
ARM GAS  /tmp/cc0Mhh5V.s 			page 6


 209              		.cfi_def_cfa_offset 16
 210              		.cfi_offset 4, -16
 211              		.cfi_offset 5, -12
 212              		.cfi_offset 6, -8
 213              		.cfi_offset 14, -4
 214 0002 0C46     		mov	r4, r1
 215 0004 1646     		mov	r6, r2
  85:Core/Src/syscalls.c ****   (void)file;
 216              		.loc 1 85 3 is_stmt 1 view .LVU40
  86:Core/Src/syscalls.c ****   int DataIdx;
 217              		.loc 1 86 3 view .LVU41
  87:Core/Src/syscalls.c **** 
  88:Core/Src/syscalls.c ****   for (DataIdx = 0; DataIdx < len; DataIdx++)
 218              		.loc 1 88 3 view .LVU42
 219              	.LVL13:
 220              		.loc 1 88 16 is_stmt 0 view .LVU43
 221 0006 0025     		movs	r5, #0
 222              		.loc 1 88 3 view .LVU44
 223 0008 04E0     		b	.L13
 224              	.LVL14:
 225              	.L14:
  89:Core/Src/syscalls.c ****   {
  90:Core/Src/syscalls.c ****     __io_putchar(*ptr++);
 226              		.loc 1 90 5 is_stmt 1 discriminator 3 view .LVU45
 227              		.loc 1 90 5 is_stmt 0 discriminator 3 view .LVU46
 228 000a 14F8010B 		ldrb	r0, [r4], #1	@ zero_extendqisi2
 229              	.LVL15:
 230              		.loc 1 90 5 discriminator 3 view .LVU47
 231 000e FFF7FEFF 		bl	__io_putchar
 232              	.LVL16:
  88:Core/Src/syscalls.c ****   {
 233              		.loc 1 88 36 is_stmt 1 discriminator 3 view .LVU48
  88:Core/Src/syscalls.c ****   {
 234              		.loc 1 88 43 is_stmt 0 discriminator 3 view .LVU49
 235 0012 0135     		adds	r5, r5, #1
 236              	.LVL17:
 237              	.L13:
  88:Core/Src/syscalls.c ****   {
 238              		.loc 1 88 21 is_stmt 1 discriminator 1 view .LVU50
  88:Core/Src/syscalls.c ****   {
 239              		.loc 1 88 3 is_stmt 0 discriminator 1 view .LVU51
 240 0014 B542     		cmp	r5, r6
 241 0016 F8DB     		blt	.L14
  91:Core/Src/syscalls.c ****   }
  92:Core/Src/syscalls.c ****   return len;
 242              		.loc 1 92 3 is_stmt 1 view .LVU52
  93:Core/Src/syscalls.c **** }
 243              		.loc 1 93 1 is_stmt 0 view .LVU53
 244 0018 3046     		mov	r0, r6
 245 001a 70BD     		pop	{r4, r5, r6, pc}
 246              		.loc 1 93 1 view .LVU54
 247              		.cfi_endproc
 248              	.LFE30:
 250              		.section	.text._sbrk,"ax",%progbits
 251              		.align	1
 252              		.global	_sbrk
 253              		.syntax unified
ARM GAS  /tmp/cc0Mhh5V.s 			page 7


 254              		.thumb
 255              		.thumb_func
 257              	_sbrk:
 258              	.LVL18:
 259              	.LFB31:
  94:Core/Src/syscalls.c **** 
  95:Core/Src/syscalls.c **** caddr_t _sbrk(int incr) {
 260              		.loc 1 95 25 is_stmt 1 view -0
 261              		.cfi_startproc
 262              		@ args = 0, pretend = 0, frame = 0
 263              		@ frame_needed = 0, uses_anonymous_args = 0
 264              		.loc 1 95 25 is_stmt 0 view .LVU56
 265 0000 08B5     		push	{r3, lr}
 266              	.LCFI4:
 267              		.cfi_def_cfa_offset 8
 268              		.cfi_offset 3, -8
 269              		.cfi_offset 14, -4
 270 0002 0346     		mov	r3, r0
  96:Core/Src/syscalls.c ****     extern char __heap_start__ asm("end");  // Defined by the linker.
 271              		.loc 1 96 5 is_stmt 1 view .LVU57
  97:Core/Src/syscalls.c ****     static char *heap_end;
 272              		.loc 1 97 5 view .LVU58
  98:Core/Src/syscalls.c ****     char *prev_heap_end;
 273              		.loc 1 98 5 view .LVU59
  99:Core/Src/syscalls.c **** 
 100:Core/Src/syscalls.c ****     if (heap_end == NULL) heap_end = &__heap_start__;
 274              		.loc 1 100 5 view .LVU60
 275              		.loc 1 100 18 is_stmt 0 view .LVU61
 276 0004 0D4A     		ldr	r2, .L23
 277 0006 1268     		ldr	r2, [r2]
 278              		.loc 1 100 8 view .LVU62
 279 0008 5AB1     		cbz	r2, .L21
 280              	.L17:
 101:Core/Src/syscalls.c **** 
 102:Core/Src/syscalls.c ****     prev_heap_end = heap_end;
 281              		.loc 1 102 5 is_stmt 1 view .LVU63
 282              		.loc 1 102 19 is_stmt 0 view .LVU64
 283 000a 0C4A     		ldr	r2, .L23
 284 000c 1068     		ldr	r0, [r2]
 285              	.LVL19:
 103:Core/Src/syscalls.c **** 
 104:Core/Src/syscalls.c ****     if (heap_end + incr > &_estack - _Min_Stack_Size) {
 286              		.loc 1 104 5 is_stmt 1 view .LVU65
 287              		.loc 1 104 18 is_stmt 0 view .LVU66
 288 000e 0344     		add	r3, r3, r0
 289              	.LVL20:
 290              		.loc 1 104 36 view .LVU67
 291 0010 0B4A     		ldr	r2, .L23+4
 292 0012 1178     		ldrb	r1, [r2]	@ zero_extendqisi2
 293 0014 0B4A     		ldr	r2, .L23+8
 294 0016 521A     		subs	r2, r2, r1
 295              		.loc 1 104 8 view .LVU68
 296 0018 9342     		cmp	r3, r2
 297 001a 06D8     		bhi	.L22
 105:Core/Src/syscalls.c ****     		__asm("BKPT #0\n");
 106:Core/Src/syscalls.c ****         errno = ENOMEM;
 107:Core/Src/syscalls.c ****         return (caddr_t)-1;
ARM GAS  /tmp/cc0Mhh5V.s 			page 8


 108:Core/Src/syscalls.c **** 
 109:Core/Src/syscalls.c ****     }
 110:Core/Src/syscalls.c **** 
 111:Core/Src/syscalls.c ****     heap_end += incr;
 298              		.loc 1 111 5 is_stmt 1 view .LVU69
 299              		.loc 1 111 14 is_stmt 0 view .LVU70
 300 001c 074A     		ldr	r2, .L23
 301 001e 1360     		str	r3, [r2]
 112:Core/Src/syscalls.c ****     return (caddr_t)prev_heap_end;
 302              		.loc 1 112 5 is_stmt 1 view .LVU71
 303              	.LVL21:
 304              	.L16:
 113:Core/Src/syscalls.c **** 
 114:Core/Src/syscalls.c **** }
 305              		.loc 1 114 1 is_stmt 0 view .LVU72
 306 0020 08BD     		pop	{r3, pc}
 307              	.LVL22:
 308              	.L21:
 100:Core/Src/syscalls.c **** 
 309              		.loc 1 100 27 is_stmt 1 discriminator 1 view .LVU73
 100:Core/Src/syscalls.c **** 
 310              		.loc 1 100 36 is_stmt 0 discriminator 1 view .LVU74
 311 0022 064A     		ldr	r2, .L23
 312 0024 0849     		ldr	r1, .L23+12
 313 0026 1160     		str	r1, [r2]
 314 0028 EFE7     		b	.L17
 315              	.LVL23:
 316              	.L22:
 105:Core/Src/syscalls.c ****         errno = ENOMEM;
 317              		.loc 1 105 7 is_stmt 1 view .LVU75
 318              		.syntax unified
 319              	@ 105 "Core/Src/syscalls.c" 1
 320 002a 00BE     		BKPT #0
 321              	
 322              	@ 0 "" 2
 106:Core/Src/syscalls.c ****         return (caddr_t)-1;
 323              		.loc 1 106 9 view .LVU76
 324              		.thumb
 325              		.syntax unified
 326 002c FFF7FEFF 		bl	__errno
 327              	.LVL24:
 106:Core/Src/syscalls.c ****         return (caddr_t)-1;
 328              		.loc 1 106 15 is_stmt 0 view .LVU77
 329 0030 0C23     		movs	r3, #12
 330 0032 0360     		str	r3, [r0]
 107:Core/Src/syscalls.c **** 
 331              		.loc 1 107 9 is_stmt 1 view .LVU78
 107:Core/Src/syscalls.c **** 
 332              		.loc 1 107 16 is_stmt 0 view .LVU79
 333 0034 4FF0FF30 		mov	r0, #-1
 334 0038 F2E7     		b	.L16
 335              	.L24:
 336 003a 00BF     		.align	2
 337              	.L23:
 338 003c 00000000 		.word	.LANCHOR0
 339 0040 00000000 		.word	_Min_Stack_Size
 340 0044 00000000 		.word	_estack
ARM GAS  /tmp/cc0Mhh5V.s 			page 9


 341 0048 00000000 		.word	end
 342              		.cfi_endproc
 343              	.LFE31:
 345              		.section	.text._close,"ax",%progbits
 346              		.align	1
 347              		.global	_close
 348              		.syntax unified
 349              		.thumb
 350              		.thumb_func
 352              	_close:
 353              	.LVL25:
 354              	.LFB32:
 115:Core/Src/syscalls.c **** int _close(int file)
 116:Core/Src/syscalls.c **** {
 355              		.loc 1 116 1 is_stmt 1 view -0
 356              		.cfi_startproc
 357              		@ args = 0, pretend = 0, frame = 0
 358              		@ frame_needed = 0, uses_anonymous_args = 0
 359              		@ link register save eliminated.
 117:Core/Src/syscalls.c ****   (void)file;
 360              		.loc 1 117 3 view .LVU81
 118:Core/Src/syscalls.c ****   return -1;
 361              		.loc 1 118 3 view .LVU82
 119:Core/Src/syscalls.c **** }
 362              		.loc 1 119 1 is_stmt 0 view .LVU83
 363 0000 4FF0FF30 		mov	r0, #-1
 364              	.LVL26:
 365              		.loc 1 119 1 view .LVU84
 366 0004 7047     		bx	lr
 367              		.cfi_endproc
 368              	.LFE32:
 370              		.section	.text._fstat,"ax",%progbits
 371              		.align	1
 372              		.global	_fstat
 373              		.syntax unified
 374              		.thumb
 375              		.thumb_func
 377              	_fstat:
 378              	.LVL27:
 379              	.LFB33:
 120:Core/Src/syscalls.c **** 
 121:Core/Src/syscalls.c **** 
 122:Core/Src/syscalls.c **** int _fstat(int file, struct stat *st)
 123:Core/Src/syscalls.c **** {
 380              		.loc 1 123 1 is_stmt 1 view -0
 381              		.cfi_startproc
 382              		@ args = 0, pretend = 0, frame = 0
 383              		@ frame_needed = 0, uses_anonymous_args = 0
 384              		@ link register save eliminated.
 124:Core/Src/syscalls.c ****   (void)file;
 385              		.loc 1 124 3 view .LVU86
 125:Core/Src/syscalls.c ****   st->st_mode = S_IFCHR;
 386              		.loc 1 125 3 view .LVU87
 387              		.loc 1 125 15 is_stmt 0 view .LVU88
 388 0000 4FF40053 		mov	r3, #8192
 389 0004 4B60     		str	r3, [r1, #4]
 126:Core/Src/syscalls.c ****   return 0;
ARM GAS  /tmp/cc0Mhh5V.s 			page 10


 390              		.loc 1 126 3 is_stmt 1 view .LVU89
 127:Core/Src/syscalls.c **** }
 391              		.loc 1 127 1 is_stmt 0 view .LVU90
 392 0006 0020     		movs	r0, #0
 393              	.LVL28:
 394              		.loc 1 127 1 view .LVU91
 395 0008 7047     		bx	lr
 396              		.cfi_endproc
 397              	.LFE33:
 399              		.section	.text._isatty,"ax",%progbits
 400              		.align	1
 401              		.global	_isatty
 402              		.syntax unified
 403              		.thumb
 404              		.thumb_func
 406              	_isatty:
 407              	.LVL29:
 408              	.LFB34:
 128:Core/Src/syscalls.c **** 
 129:Core/Src/syscalls.c **** int _isatty(int file)
 130:Core/Src/syscalls.c **** {
 409              		.loc 1 130 1 is_stmt 1 view -0
 410              		.cfi_startproc
 411              		@ args = 0, pretend = 0, frame = 0
 412              		@ frame_needed = 0, uses_anonymous_args = 0
 413              		@ link register save eliminated.
 131:Core/Src/syscalls.c ****   (void)file;
 414              		.loc 1 131 3 view .LVU93
 132:Core/Src/syscalls.c ****   return 1;
 415              		.loc 1 132 3 view .LVU94
 133:Core/Src/syscalls.c **** }
 416              		.loc 1 133 1 is_stmt 0 view .LVU95
 417 0000 0120     		movs	r0, #1
 418              	.LVL30:
 419              		.loc 1 133 1 view .LVU96
 420 0002 7047     		bx	lr
 421              		.cfi_endproc
 422              	.LFE34:
 424              		.section	.text._lseek,"ax",%progbits
 425              		.align	1
 426              		.global	_lseek
 427              		.syntax unified
 428              		.thumb
 429              		.thumb_func
 431              	_lseek:
 432              	.LVL31:
 433              	.LFB35:
 134:Core/Src/syscalls.c **** 
 135:Core/Src/syscalls.c **** int _lseek(int file, int ptr, int dir)
 136:Core/Src/syscalls.c **** {
 434              		.loc 1 136 1 is_stmt 1 view -0
 435              		.cfi_startproc
 436              		@ args = 0, pretend = 0, frame = 0
 437              		@ frame_needed = 0, uses_anonymous_args = 0
 438              		@ link register save eliminated.
 137:Core/Src/syscalls.c ****   (void)file;
 439              		.loc 1 137 3 view .LVU98
ARM GAS  /tmp/cc0Mhh5V.s 			page 11


 138:Core/Src/syscalls.c ****   (void)ptr;
 440              		.loc 1 138 3 view .LVU99
 139:Core/Src/syscalls.c ****   (void)dir;
 441              		.loc 1 139 3 view .LVU100
 140:Core/Src/syscalls.c ****   return 0;
 442              		.loc 1 140 3 view .LVU101
 141:Core/Src/syscalls.c **** }
 443              		.loc 1 141 1 is_stmt 0 view .LVU102
 444 0000 0020     		movs	r0, #0
 445              	.LVL32:
 446              		.loc 1 141 1 view .LVU103
 447 0002 7047     		bx	lr
 448              		.cfi_endproc
 449              	.LFE35:
 451              		.section	.text._open,"ax",%progbits
 452              		.align	1
 453              		.global	_open
 454              		.syntax unified
 455              		.thumb
 456              		.thumb_func
 458              	_open:
 459              	.LVL33:
 460              	.LFB36:
 142:Core/Src/syscalls.c **** 
 143:Core/Src/syscalls.c **** int _open(char *path, int flags, ...)
 144:Core/Src/syscalls.c **** {
 461              		.loc 1 144 1 is_stmt 1 view -0
 462              		.cfi_startproc
 463              		@ args = 4, pretend = 12, frame = 0
 464              		@ frame_needed = 0, uses_anonymous_args = 1
 465              		@ link register save eliminated.
 466              		.loc 1 144 1 is_stmt 0 view .LVU105
 467 0000 0EB4     		push	{r1, r2, r3}
 468              	.LCFI5:
 469              		.cfi_def_cfa_offset 12
 470              		.cfi_offset 1, -12
 471              		.cfi_offset 2, -8
 472              		.cfi_offset 3, -4
 145:Core/Src/syscalls.c ****   (void)path;
 473              		.loc 1 145 3 is_stmt 1 view .LVU106
 146:Core/Src/syscalls.c ****   (void)flags;
 474              		.loc 1 146 3 view .LVU107
 147:Core/Src/syscalls.c ****   /* Pretend like we always fail */
 148:Core/Src/syscalls.c ****   return -1;
 475              		.loc 1 148 3 view .LVU108
 149:Core/Src/syscalls.c **** }
 476              		.loc 1 149 1 is_stmt 0 view .LVU109
 477 0002 4FF0FF30 		mov	r0, #-1
 478              	.LVL34:
 479              		.loc 1 149 1 view .LVU110
 480 0006 03B0     		add	sp, sp, #12
 481              	.LCFI6:
 482              		.cfi_restore 3
 483              		.cfi_restore 2
 484              		.cfi_restore 1
 485              		.cfi_def_cfa_offset 0
 486 0008 7047     		bx	lr
ARM GAS  /tmp/cc0Mhh5V.s 			page 12


 487              		.cfi_endproc
 488              	.LFE36:
 490              		.section	.text._wait,"ax",%progbits
 491              		.align	1
 492              		.global	_wait
 493              		.syntax unified
 494              		.thumb
 495              		.thumb_func
 497              	_wait:
 498              	.LVL35:
 499              	.LFB37:
 150:Core/Src/syscalls.c **** 
 151:Core/Src/syscalls.c **** int _wait(int *status)
 152:Core/Src/syscalls.c **** {
 500              		.loc 1 152 1 is_stmt 1 view -0
 501              		.cfi_startproc
 502              		@ args = 0, pretend = 0, frame = 0
 503              		@ frame_needed = 0, uses_anonymous_args = 0
 504              		.loc 1 152 1 is_stmt 0 view .LVU112
 505 0000 08B5     		push	{r3, lr}
 506              	.LCFI7:
 507              		.cfi_def_cfa_offset 8
 508              		.cfi_offset 3, -8
 509              		.cfi_offset 14, -4
 153:Core/Src/syscalls.c ****   (void)status;
 510              		.loc 1 153 3 is_stmt 1 view .LVU113
 154:Core/Src/syscalls.c ****   errno = ECHILD;
 511              		.loc 1 154 3 view .LVU114
 512 0002 FFF7FEFF 		bl	__errno
 513              	.LVL36:
 514              		.loc 1 154 9 is_stmt 0 view .LVU115
 515 0006 0A23     		movs	r3, #10
 516 0008 0360     		str	r3, [r0]
 155:Core/Src/syscalls.c ****   return -1;
 517              		.loc 1 155 3 is_stmt 1 view .LVU116
 156:Core/Src/syscalls.c **** }
 518              		.loc 1 156 1 is_stmt 0 view .LVU117
 519 000a 4FF0FF30 		mov	r0, #-1
 520 000e 08BD     		pop	{r3, pc}
 521              		.cfi_endproc
 522              	.LFE37:
 524              		.section	.text._unlink,"ax",%progbits
 525              		.align	1
 526              		.global	_unlink
 527              		.syntax unified
 528              		.thumb
 529              		.thumb_func
 531              	_unlink:
 532              	.LVL37:
 533              	.LFB38:
 157:Core/Src/syscalls.c **** 
 158:Core/Src/syscalls.c **** int _unlink(char *name)
 159:Core/Src/syscalls.c **** {
 534              		.loc 1 159 1 is_stmt 1 view -0
 535              		.cfi_startproc
 536              		@ args = 0, pretend = 0, frame = 0
 537              		@ frame_needed = 0, uses_anonymous_args = 0
ARM GAS  /tmp/cc0Mhh5V.s 			page 13


 538              		.loc 1 159 1 is_stmt 0 view .LVU119
 539 0000 08B5     		push	{r3, lr}
 540              	.LCFI8:
 541              		.cfi_def_cfa_offset 8
 542              		.cfi_offset 3, -8
 543              		.cfi_offset 14, -4
 160:Core/Src/syscalls.c ****   (void)name;
 544              		.loc 1 160 3 is_stmt 1 view .LVU120
 161:Core/Src/syscalls.c ****   errno = ENOENT;
 545              		.loc 1 161 3 view .LVU121
 546 0002 FFF7FEFF 		bl	__errno
 547              	.LVL38:
 548              		.loc 1 161 9 is_stmt 0 view .LVU122
 549 0006 0223     		movs	r3, #2
 550 0008 0360     		str	r3, [r0]
 162:Core/Src/syscalls.c ****   return -1;
 551              		.loc 1 162 3 is_stmt 1 view .LVU123
 163:Core/Src/syscalls.c **** }
 552              		.loc 1 163 1 is_stmt 0 view .LVU124
 553 000a 4FF0FF30 		mov	r0, #-1
 554 000e 08BD     		pop	{r3, pc}
 555              		.cfi_endproc
 556              	.LFE38:
 558              		.section	.text._times,"ax",%progbits
 559              		.align	1
 560              		.global	_times
 561              		.syntax unified
 562              		.thumb
 563              		.thumb_func
 565              	_times:
 566              	.LVL39:
 567              	.LFB39:
 164:Core/Src/syscalls.c **** 
 165:Core/Src/syscalls.c **** int _times(struct tms *buf)
 166:Core/Src/syscalls.c **** {
 568              		.loc 1 166 1 is_stmt 1 view -0
 569              		.cfi_startproc
 570              		@ args = 0, pretend = 0, frame = 0
 571              		@ frame_needed = 0, uses_anonymous_args = 0
 572              		@ link register save eliminated.
 167:Core/Src/syscalls.c ****   (void)buf;
 573              		.loc 1 167 3 view .LVU126
 168:Core/Src/syscalls.c ****   return -1;
 574              		.loc 1 168 3 view .LVU127
 169:Core/Src/syscalls.c **** }
 575              		.loc 1 169 1 is_stmt 0 view .LVU128
 576 0000 4FF0FF30 		mov	r0, #-1
 577              	.LVL40:
 578              		.loc 1 169 1 view .LVU129
 579 0004 7047     		bx	lr
 580              		.cfi_endproc
 581              	.LFE39:
 583              		.section	.text._stat,"ax",%progbits
 584              		.align	1
 585              		.global	_stat
 586              		.syntax unified
 587              		.thumb
ARM GAS  /tmp/cc0Mhh5V.s 			page 14


 588              		.thumb_func
 590              	_stat:
 591              	.LVL41:
 592              	.LFB40:
 170:Core/Src/syscalls.c **** 
 171:Core/Src/syscalls.c **** int _stat(char *file, struct stat *st)
 172:Core/Src/syscalls.c **** {
 593              		.loc 1 172 1 is_stmt 1 view -0
 594              		.cfi_startproc
 595              		@ args = 0, pretend = 0, frame = 0
 596              		@ frame_needed = 0, uses_anonymous_args = 0
 597              		@ link register save eliminated.
 173:Core/Src/syscalls.c ****   (void)file;
 598              		.loc 1 173 3 view .LVU131
 174:Core/Src/syscalls.c ****   st->st_mode = S_IFCHR;
 599              		.loc 1 174 3 view .LVU132
 600              		.loc 1 174 15 is_stmt 0 view .LVU133
 601 0000 4FF40053 		mov	r3, #8192
 602 0004 4B60     		str	r3, [r1, #4]
 175:Core/Src/syscalls.c ****   return 0;
 603              		.loc 1 175 3 is_stmt 1 view .LVU134
 176:Core/Src/syscalls.c **** }
 604              		.loc 1 176 1 is_stmt 0 view .LVU135
 605 0006 0020     		movs	r0, #0
 606              	.LVL42:
 607              		.loc 1 176 1 view .LVU136
 608 0008 7047     		bx	lr
 609              		.cfi_endproc
 610              	.LFE40:
 612              		.section	.text._link,"ax",%progbits
 613              		.align	1
 614              		.global	_link
 615              		.syntax unified
 616              		.thumb
 617              		.thumb_func
 619              	_link:
 620              	.LVL43:
 621              	.LFB41:
 177:Core/Src/syscalls.c **** 
 178:Core/Src/syscalls.c **** int _link(char *old, char *new)
 179:Core/Src/syscalls.c **** {
 622              		.loc 1 179 1 is_stmt 1 view -0
 623              		.cfi_startproc
 624              		@ args = 0, pretend = 0, frame = 0
 625              		@ frame_needed = 0, uses_anonymous_args = 0
 626              		.loc 1 179 1 is_stmt 0 view .LVU138
 627 0000 08B5     		push	{r3, lr}
 628              	.LCFI9:
 629              		.cfi_def_cfa_offset 8
 630              		.cfi_offset 3, -8
 631              		.cfi_offset 14, -4
 180:Core/Src/syscalls.c ****   (void)old;
 632              		.loc 1 180 3 is_stmt 1 view .LVU139
 181:Core/Src/syscalls.c ****   (void)new;
 633              		.loc 1 181 3 view .LVU140
 182:Core/Src/syscalls.c ****   errno = EMLINK;
 634              		.loc 1 182 3 view .LVU141
ARM GAS  /tmp/cc0Mhh5V.s 			page 15


 635 0002 FFF7FEFF 		bl	__errno
 636              	.LVL44:
 637              		.loc 1 182 9 is_stmt 0 view .LVU142
 638 0006 1F23     		movs	r3, #31
 639 0008 0360     		str	r3, [r0]
 183:Core/Src/syscalls.c ****   return -1;
 640              		.loc 1 183 3 is_stmt 1 view .LVU143
 184:Core/Src/syscalls.c **** }
 641              		.loc 1 184 1 is_stmt 0 view .LVU144
 642 000a 4FF0FF30 		mov	r0, #-1
 643 000e 08BD     		pop	{r3, pc}
 644              		.cfi_endproc
 645              	.LFE41:
 647              		.section	.text._fork,"ax",%progbits
 648              		.align	1
 649              		.global	_fork
 650              		.syntax unified
 651              		.thumb
 652              		.thumb_func
 654              	_fork:
 655              	.LFB42:
 185:Core/Src/syscalls.c **** 
 186:Core/Src/syscalls.c **** int _fork(void)
 187:Core/Src/syscalls.c **** {
 656              		.loc 1 187 1 is_stmt 1 view -0
 657              		.cfi_startproc
 658              		@ args = 0, pretend = 0, frame = 0
 659              		@ frame_needed = 0, uses_anonymous_args = 0
 660 0000 08B5     		push	{r3, lr}
 661              	.LCFI10:
 662              		.cfi_def_cfa_offset 8
 663              		.cfi_offset 3, -8
 664              		.cfi_offset 14, -4
 188:Core/Src/syscalls.c ****   errno = EAGAIN;
 665              		.loc 1 188 3 view .LVU146
 666 0002 FFF7FEFF 		bl	__errno
 667              	.LVL45:
 668              		.loc 1 188 9 is_stmt 0 view .LVU147
 669 0006 0B23     		movs	r3, #11
 670 0008 0360     		str	r3, [r0]
 189:Core/Src/syscalls.c ****   return -1;
 671              		.loc 1 189 3 is_stmt 1 view .LVU148
 190:Core/Src/syscalls.c **** }
 672              		.loc 1 190 1 is_stmt 0 view .LVU149
 673 000a 4FF0FF30 		mov	r0, #-1
 674 000e 08BD     		pop	{r3, pc}
 675              		.cfi_endproc
 676              	.LFE42:
 678              		.section	.text._execve,"ax",%progbits
 679              		.align	1
 680              		.global	_execve
 681              		.syntax unified
 682              		.thumb
 683              		.thumb_func
 685              	_execve:
 686              	.LVL46:
 687              	.LFB43:
ARM GAS  /tmp/cc0Mhh5V.s 			page 16


 191:Core/Src/syscalls.c **** 
 192:Core/Src/syscalls.c **** int _execve(char *name, char **argv, char **env)
 193:Core/Src/syscalls.c **** {
 688              		.loc 1 193 1 is_stmt 1 view -0
 689              		.cfi_startproc
 690              		@ args = 0, pretend = 0, frame = 0
 691              		@ frame_needed = 0, uses_anonymous_args = 0
 692              		.loc 1 193 1 is_stmt 0 view .LVU151
 693 0000 08B5     		push	{r3, lr}
 694              	.LCFI11:
 695              		.cfi_def_cfa_offset 8
 696              		.cfi_offset 3, -8
 697              		.cfi_offset 14, -4
 194:Core/Src/syscalls.c ****   (void)name;
 698              		.loc 1 194 3 is_stmt 1 view .LVU152
 195:Core/Src/syscalls.c ****   (void)argv;
 699              		.loc 1 195 3 view .LVU153
 196:Core/Src/syscalls.c ****   (void)env;
 700              		.loc 1 196 3 view .LVU154
 197:Core/Src/syscalls.c ****   errno = ENOMEM;
 701              		.loc 1 197 3 view .LVU155
 702 0002 FFF7FEFF 		bl	__errno
 703              	.LVL47:
 704              		.loc 1 197 9 is_stmt 0 view .LVU156
 705 0006 0C23     		movs	r3, #12
 706 0008 0360     		str	r3, [r0]
 198:Core/Src/syscalls.c ****   return -1;
 707              		.loc 1 198 3 is_stmt 1 view .LVU157
 199:Core/Src/syscalls.c **** }
 708              		.loc 1 199 1 is_stmt 0 view .LVU158
 709 000a 4FF0FF30 		mov	r0, #-1
 710 000e 08BD     		pop	{r3, pc}
 711              		.cfi_endproc
 712              	.LFE43:
 714              		.global	environ
 715              		.global	__env
 716              		.section	.bss.__env,"aw",%nobits
 717              		.align	2
 720              	__env:
 721 0000 00000000 		.space	4
 722              		.section	.bss.heap_end.0,"aw",%nobits
 723              		.align	2
 724              		.set	.LANCHOR0,. + 0
 727              	heap_end.0:
 728 0000 00000000 		.space	4
 729              		.section	.data.environ,"aw"
 730              		.align	2
 733              	environ:
 734 0000 00000000 		.word	__env
 735              		.weak	__io_putchar
 736              		.weak	__io_getchar
 737              		.text
 738              	.Letext0:
 739              		.file 2 "/opt/st/stm32cubeide_1.12.1/plugins/com.st.stm32cube.ide.mcu.externaltools.gnu-tools-for-
 740              		.file 3 "/opt/st/stm32cubeide_1.12.1/plugins/com.st.stm32cube.ide.mcu.externaltools.gnu-tools-for-
 741              		.file 4 "/opt/st/stm32cubeide_1.12.1/plugins/com.st.stm32cube.ide.mcu.externaltools.gnu-tools-for-
 742              		.file 5 "/opt/st/stm32cubeide_1.12.1/plugins/com.st.stm32cube.ide.mcu.externaltools.gnu-tools-for-
ARM GAS  /tmp/cc0Mhh5V.s 			page 17


 743              		.file 6 "/opt/st/stm32cubeide_1.12.1/plugins/com.st.stm32cube.ide.mcu.externaltools.gnu-tools-for-
 744              		.file 7 "/opt/st/stm32cubeide_1.12.1/plugins/com.st.stm32cube.ide.mcu.externaltools.gnu-tools-for-
 745              		.file 8 "/opt/st/stm32cubeide_1.12.1/plugins/com.st.stm32cube.ide.mcu.externaltools.gnu-tools-for-
 746              		.file 9 "/opt/st/stm32cubeide_1.12.1/plugins/com.st.stm32cube.ide.mcu.externaltools.gnu-tools-for-
ARM GAS  /tmp/cc0Mhh5V.s 			page 18

